; Function Attrs: nounwind uwtable
define void @lv_chart_set_value_by_id(ptr noundef %0, ptr noundef readonly %1, i32 noundef %2, i32 noundef %3) local_unnamed_addr #0 {
  %.not = icmp eq ptr %1, null
  br i1 %.not, label %.preheader, label %5

.preheader:                                       ; preds = %4, %.preheader
  br label %.preheader

5:                                                ; preds = %4
  %6 = getelementptr inbounds nuw i8, ptr %0, i64 156
  %7 = load i32, ptr %6, align 4, !tbaa !15
  %.not9 = icmp ult i32 %2, %7
  br i1 %.not9, label %8, label %13

8:                                                ; preds = %5
  %9 = getelementptr inbounds nuw i8, ptr %1, i64 8
  %10 = load ptr, ptr %9, align 8, !tbaa !18
  %11 = zext i32 %2 to i64
  %12 = getelementptr inbounds nuw i32, ptr %10, i64 %11
  store i32 %3, ptr %12, align 4, !tbaa !3
  tail call fastcc void @invalidate_point(ptr noundef nonnull %0, i32 noundef %2)
  br label %13

13:                                               ; preds = %5, %8
  ret void
}